target datalayout = "e-m:e-p270:32:32-p271:32:32-p272:64:64-i64:64-i128:128-f80:128-n8:16:32:64-S128"
target triple = "x86_64-pc-linux-gnu"

%"class.gmx::HistogramSize" = type <{ i64, double, i8, [7 x i8], double, i8, [7 x i8], double, double, i8, [7 x i8] }>
%"struct.gmx::AwhBiasStateHistory" = type { i32, i32, i32, i8, i8, double, double, double, i64 }

; Function Attrs: mustprogress nounwind uwtable
define void @_ZNK3gmx13HistogramSize10storeStateEPNS_19AwhBiasStateHistoryE(ptr noundef nonnull align 8 dereferenceable(57) %0, ptr noundef %1) #1 align 2 {
  %3 = alloca ptr, align 8
  %4 = alloca ptr, align 8
  store ptr %0, ptr %3, align 8, !tbaa !4
  store ptr %1, ptr %4, align 8, !tbaa !90
  %5 = load ptr, ptr %3, align 8
  %6 = getelementptr inbounds nuw %"class.gmx::HistogramSize", ptr %5, i32 0, i32 0
  %7 = load i64, ptr %6, align 8, !tbaa !13
  %8 = load ptr, ptr %4, align 8, !tbaa !90
  %9 = getelementptr inbounds nuw %"struct.gmx::AwhBiasStateHistory", ptr %8, i32 0, i32 8
  store i64 %7, ptr %9, align 8, !tbaa !92
  %10 = getelementptr inbounds nuw %"class.gmx::HistogramSize", ptr %5, i32 0, i32 1
  %11 = load double, ptr %10, align 8, !tbaa !17
  %12 = load ptr, ptr %4, align 8, !tbaa !90
  %13 = getelementptr inbounds nuw %"struct.gmx::AwhBiasStateHistory", ptr %12, i32 0, i32 5
  store double %11, ptr %13, align 8, !tbaa !94
  %14 = getelementptr inbounds nuw %"class.gmx::HistogramSize", ptr %5, i32 0, i32 2
  %15 = load i8, ptr %14, align 8, !tbaa !18, !range !36, !noundef !37
  %16 = trunc i8 %15 to i1
  %17 = load ptr, ptr %4, align 8, !tbaa !90
  %18 = getelementptr inbounds nuw %"struct.gmx::AwhBiasStateHistory", ptr %17, i32 0, i32 3
  %19 = zext i1 %16 to i8
  store i8 %19, ptr %18, align 4, !tbaa !95
  %20 = getelementptr inbounds nuw %"class.gmx::HistogramSize", ptr %5, i32 0, i32 5
  %21 = load i8, ptr %20, align 8, !tbaa !20, !range !36, !noundef !37
  %22 = trunc i8 %21 to i1
  %23 = load ptr, ptr %4, align 8, !tbaa !90
  %24 = getelementptr inbounds nuw %"struct.gmx::AwhBiasStateHistory", ptr %23, i32 0, i32 4
  %25 = zext i1 %22 to i8
  store i8 %25, ptr %24, align 1, !tbaa !96
  %26 = getelementptr inbounds nuw %"class.gmx::HistogramSize", ptr %5, i32 0, i32 7
  %27 = load double, ptr %26, align 8, !tbaa !21
  %28 = load ptr, ptr %4, align 8, !tbaa !90
  %29 = getelementptr inbounds nuw %"struct.gmx::AwhBiasStateHistory", ptr %28, i32 0, i32 6
  store double %27, ptr %29, align 8, !tbaa !97
  %30 = getelementptr inbounds nuw %"class.gmx::HistogramSize", ptr %5, i32 0, i32 8
  %31 = load double, ptr %30, align 8, !tbaa !22
  %32 = load ptr, ptr %4, align 8, !tbaa !90
  %33 = getelementptr inbounds nuw %"struct.gmx::AwhBiasStateHistory", ptr %32, i32 0, i32 7
  store double %31, ptr %33, align 8, !tbaa !98
  ret void
}