; Function Attrs: mustprogress nofree norecurse nosync nounwind willreturn memory(argmem: readwrite) uwtable
define void @_ZNK3gmx13HistogramSize10storeStateEPNS_19AwhBiasStateHistoryE(ptr noundef nonnull readonly align 8 captures(none) dereferenceable(57) %0, ptr noundef writeonly captures(none) initializes((12, 14), (16, 48)) %1) local_unnamed_addr #0 align 2 {
  %3 = load i64, ptr %0, align 8, !tbaa !4
  %4 = getelementptr inbounds nuw i8, ptr %1, i64 40
  store i64 %3, ptr %4, align 8, !tbaa !51
  %5 = getelementptr inbounds nuw i8, ptr %0, i64 8
  %6 = load double, ptr %5, align 8, !tbaa !11
  %7 = getelementptr inbounds nuw i8, ptr %1, i64 16
  store double %6, ptr %7, align 8, !tbaa !53
  %8 = getelementptr inbounds nuw i8, ptr %0, i64 16
  %9 = load i8, ptr %8, align 8, !tbaa !23, !range !27, !noundef !28
  %10 = getelementptr inbounds nuw i8, ptr %1, i64 12
  store i8 %9, ptr %10, align 4, !tbaa !54
  %11 = getelementptr inbounds nuw i8, ptr %0, i64 32
  %12 = load i8, ptr %11, align 8, !tbaa !29, !range !27, !noundef !28
  %13 = getelementptr inbounds nuw i8, ptr %1, i64 13
  store i8 %12, ptr %13, align 1, !tbaa !55
  %14 = getelementptr inbounds nuw i8, ptr %0, i64 40
  %15 = load double, ptr %14, align 8, !tbaa !30
  %16 = getelementptr inbounds nuw i8, ptr %1, i64 24
  store double %15, ptr %16, align 8, !tbaa !56
  %17 = getelementptr inbounds nuw i8, ptr %0, i64 48
  %18 = load double, ptr %17, align 8, !tbaa !31
  %19 = getelementptr inbounds nuw i8, ptr %1, i64 32
  store double %18, ptr %19, align 8, !tbaa !57
  ret void
}